target datalayout = "e-m:e-p270:32:32-p271:32:32-p272:64:64-i64:64-i128:128-f80:128-n8:16:32:64-S128"
target triple = "x86_64-unknown-linux-gnu"

%struct.UResourceBundle = type { ptr, ptr, ptr, ptr, ptr, [64 x i8], i32, i32, i8, i8, i32, i32, i32, i32 }
%struct.UResourceDataEntry = type { ptr, ptr, ptr, ptr, ptr, %struct.ResourceData, [3 x i8], i32, i32 }
%struct.ResourceData = type { ptr, ptr, ptr, ptr, i32, i32, ptr, i32, i32, i8, i8, i8, i8 }

; Function Attrs: mustprogress nounwind uwtable
define internal noundef signext i8 @_ZL9U_FAILURE10UErrorCode(i32 noundef %code) #0 {
entry:
  %code.addr = alloca i32, align 4
  store i32 %code, ptr %code.addr, align 4
  %0 = load i32, ptr %code.addr, align 4
  %cmp = icmp sgt i32 %0, 0
  %conv = zext i1 %cmp to i8
  ret i8 %conv
}

; Function Attrs: mustprogress uwtable
define ptr @ures_getLocaleInternal_75(ptr noundef %resourceBundle, ptr noundef %status) #1 {
entry:
  %retval = alloca ptr, align 8
  %resourceBundle.addr = alloca ptr, align 8
  %status.addr = alloca ptr, align 8
  store ptr %resourceBundle, ptr %resourceBundle.addr, align 8
  store ptr %status, ptr %status.addr, align 8
  %0 = load ptr, ptr %status.addr, align 8
  %cmp = icmp eq ptr %0, null
  br i1 %cmp, label %if.then, label %lor.lhs.false

lor.lhs.false:                                    ; preds = %entry
  %1 = load ptr, ptr %status.addr, align 8
  %2 = load i32, ptr %1, align 4
  %call = call noundef signext i8 @_ZL9U_FAILURE10UErrorCode(i32 noundef %2)
  %tobool = icmp ne i8 %call, 0
  br i1 %tobool, label %if.then, label %if.end

if.then:                                          ; preds = %lor.lhs.false, %entry
  store ptr null, ptr %retval, align 8
  br label %return

if.end:                                           ; preds = %lor.lhs.false
  %3 = load ptr, ptr %resourceBundle.addr, align 8
  %tobool1 = icmp ne ptr %3, null
  br i1 %tobool1, label %if.else, label %if.then2

if.then2:                                         ; preds = %if.end
  %4 = load ptr, ptr %status.addr, align 8
  store i32 1, ptr %4, align 4
  store ptr null, ptr %retval, align 8
  br label %return

if.else:                                          ; preds = %if.end
  %5 = load ptr, ptr %resourceBundle.addr, align 8
  %fData = getelementptr inbounds %struct.UResourceBundle, ptr %5, i32 0, i32 1
  %6 = load ptr, ptr %fData, align 8
  %fName = getelementptr inbounds %struct.UResourceDataEntry, ptr %6, i32 0, i32 0
  %7 = load ptr, ptr %fName, align 8
  store ptr %7, ptr %retval, align 8
  br label %return

return:                                           ; preds = %if.else, %if.then2, %if.then
  %8 = load ptr, ptr %retval, align 8
  ret ptr %8
}