; Function Attrs: mustprogress nofree norecurse nosync nounwind willreturn memory(read, argmem: readwrite, inaccessiblemem: none) uwtable
define ptr @ures_getLocaleInternal_75(ptr noundef readonly %resourceBundle, ptr noundef %status) local_unnamed_addr #12 {
entry:
  %cmp = icmp eq ptr %status, null
  br i1 %cmp, label %return, label %lor.lhs.false

lor.lhs.false:                                    ; preds = %entry
  %0 = load i32, ptr %status, align 4
  %cmp.i = icmp slt i32 %0, 1
  br i1 %cmp.i, label %if.end, label %return

if.end:                                           ; preds = %lor.lhs.false
  %tobool1.not = icmp eq ptr %resourceBundle, null
  br i1 %tobool1.not, label %if.then2, label %if.else

if.then2:                                         ; preds = %if.end
  store i32 1, ptr %status, align 4
  br label %return

if.else:                                          ; preds = %if.end
  %fData = getelementptr inbounds i8, ptr %resourceBundle, i64 8
  %1 = load ptr, ptr %fData, align 8
  %2 = load ptr, ptr %1, align 8
  br label %return

return:                                           ; preds = %entry, %lor.lhs.false, %if.else, %if.then2
  %retval.0 = phi ptr [ %2, %if.else ], [ null, %if.then2 ], [ null, %lor.lhs.false ], [ null, %entry ]
  ret ptr %retval.0
}